target datalayout = "e-m:e-p270:32:32-p271:32:32-p272:64:64-i64:64-i128:128-f80:128-n8:16:32:64-S128"
target triple = "x86_64-pc-linux-gnu"

%struct._address_type_t = type { i32, ptr, ptr, ptr, ptr, ptr, ptr, ptr, ptr, ptr }

@type_list = internal global [45 x ptr] zeroinitializer, align 16

; Function Attrs: nounwind null_pointer_is_valid sspstrong uwtable
define i32 @address_type_get_by_name(ptr noundef %0) #0 {
  %2 = alloca i32, align 4
  %3 = alloca ptr, align 8
  %4 = alloca ptr, align 8
  %5 = alloca i32, align 4
  store ptr %0, ptr %3, align 8
  call void @llvm.lifetime.start.p0(i64 8, ptr %4) #12
  store ptr @type_list, ptr %4, align 8
  br label %6

6:                                                ; preds = %24, %1
  %7 = load ptr, ptr %4, align 8
  %8 = load ptr, ptr %7, align 8
  %9 = icmp ne ptr %8, null
  br i1 %9, label %10, label %27

10:                                               ; preds = %6
  %11 = load ptr, ptr %4, align 8
  %12 = load ptr, ptr %11, align 8
  %13 = getelementptr inbounds nuw %struct._address_type_t, ptr %12, i32 0, i32 1
  %14 = load ptr, ptr %13, align 8
  %15 = load ptr, ptr %3, align 8
  %16 = call i32 @strcmp(ptr noundef %14, ptr noundef %15) #13
  %17 = icmp ne i32 %16, 0
  br i1 %17, label %23, label %18

18:                                               ; preds = %10
  %19 = load ptr, ptr %4, align 8
  %20 = load ptr, ptr %19, align 8
  %21 = getelementptr inbounds nuw %struct._address_type_t, ptr %20, i32 0, i32 0
  %22 = load i32, ptr %21, align 8
  store i32 %22, ptr %2, align 4
  store i32 1, ptr %5, align 4
  br label %28

23:                                               ; preds = %10
  br label %24

24:                                               ; preds = %23
  %25 = load ptr, ptr %4, align 8
  %26 = getelementptr ptr, ptr %25, i32 1
  store ptr %26, ptr %4, align 8
  br label %6, !llvm.loop !6

27:                                               ; preds = %6
  store i32 -1, ptr %2, align 4
  store i32 1, ptr %5, align 4
  br label %28

28:                                               ; preds = %27, %18
  call void @llvm.lifetime.end.p0(i64 8, ptr %4) #12
  %29 = load i32, ptr %2, align 4
  ret i32 %29
}