; Function Attrs: nofree nounwind null_pointer_is_valid sspstrong memory(read, inaccessiblemem: none) uwtable
define i32 @address_type_get_by_name(ptr noundef readonly captures(none) %0) local_unnamed_addr #2 {
  %2 = load ptr, ptr @type_list, align 16
  %.not9 = icmp eq ptr %2, null
  br i1 %.not9, label %.loopexit, label %.lr.ph

3:                                                ; preds = %.lr.ph
  %4 = getelementptr i8, ptr %.010, i64 8
  %5 = load ptr, ptr %4, align 8
  %.not = icmp eq ptr %5, null
  br i1 %.not, label %.loopexit, label %.lr.ph, !llvm.loop !6

.lr.ph:                                           ; preds = %1, %3
  %6 = phi ptr [ %5, %3 ], [ %2, %1 ]
  %.010 = phi ptr [ %4, %3 ], [ @type_list, %1 ]
  %7 = getelementptr inbounds nuw i8, ptr %6, i64 8
  %8 = load ptr, ptr %7, align 8
  %9 = tail call i32 @strcmp(ptr noundef %8, ptr noundef %0) #17
  %.not7 = icmp eq i32 %9, 0
  br i1 %.not7, label %10, label %3

10:                                               ; preds = %.lr.ph
  %11 = load i32, ptr %6, align 8
  br label %.loopexit

.loopexit:                                        ; preds = %3, %1, %10
  %.05 = phi i32 [ %11, %10 ], [ -1, %1 ], [ -1, %3 ]
  ret i32 %.05
}